	.file	"atoi_base_test.c"
	.text
	.globl	base_checks
	.type	base_checks, @function
base_checks:
.LFB6:
	.cfi_startproc
	endbr64
	pushq	%rbp
	.cfi_def_cfa_offset 16
	.cfi_offset 6, -16
	movq	%rsp, %rbp
	.cfi_def_cfa_register 6
	movq	%rdi, -24(%rbp)
	movl	$0, -4(%rbp)
	jmp	.L2
.L7:
	movl	-4(%rbp), %eax
	movslq	%eax, %rdx
	movq	-24(%rbp), %rax
	addq	%rdx, %rax
	movzbl	(%rax), %eax
	cmpb	$43, %al
	je	.L3
	movl	-4(%rbp), %eax
	movslq	%eax, %rdx
	movq	-24(%rbp), %rax
	addq	%rdx, %rax
	movzbl	(%rax), %eax
	cmpb	$45, %al
	je	.L3
	movl	-4(%rbp), %eax
	movslq	%eax, %rdx
	movq	-24(%rbp), %rax
	addq	%rdx, %rax
	movzbl	(%rax), %eax
	cmpb	$32, %al
	jne	.L4
.L3:
	movl	$-1, %eax
	jmp	.L5
.L4:
	addl	$1, -4(%rbp)
.L2:
	cmpq	$0, -24(%rbp)
	je	.L6
	movl	-4(%rbp), %eax
	movslq	%eax, %rdx
	movq	-24(%rbp), %rax
	addq	%rdx, %rax
	movzbl	(%rax), %eax
	testb	%al, %al
	jne	.L7
.L6:
	cmpl	$1, -4(%rbp)
	jg	.L8
	movl	$-1, %eax
	jmp	.L5
.L8:
	movl	$0, %eax
.L5:
	popq	%rbp
	.cfi_def_cfa 7, 8
	ret
	.cfi_endproc
.LFE6:
	.size	base_checks, .-base_checks
	.globl	base_len
	.type	base_len, @function
base_len:
.LFB7:
	.cfi_startproc
	endbr64
	pushq	%rbp
	.cfi_def_cfa_offset 16
	.cfi_offset 6, -16
	movq	%rsp, %rbp
	.cfi_def_cfa_register 6
	movq	%rdi, -24(%rbp)
	movl	$0, -4(%rbp)
	jmp	.L10
.L12:
	addl	$1, -4(%rbp)
.L10:
	cmpq	$0, -24(%rbp)
	je	.L11
	movl	-4(%rbp), %eax
	movslq	%eax, %rdx
	movq	-24(%rbp), %rax
	addq	%rdx, %rax
	movzbl	(%rax), %eax
	testb	%al, %al
	jne	.L12
.L11:
	movl	-4(%rbp), %eax
	popq	%rbp
	.cfi_def_cfa 7, 8
	ret
	.cfi_endproc
.LFE7:
	.size	base_len, .-base_len
	.globl	convert_to_b10
	.type	convert_to_b10, @function
convert_to_b10:
.LFB8:
	.cfi_startproc
	endbr64
	pushq	%rbp
	.cfi_def_cfa_offset 16
	.cfi_offset 6, -16
	movq	%rsp, %rbp
	.cfi_def_cfa_register 6
	movl	%edi, %eax
	movq	%rsi, -32(%rbp)
	movb	%al, -20(%rbp)
	movl	$0, -4(%rbp)
	jmp	.L15
.L18:
	movl	-4(%rbp), %eax
	movslq	%eax, %rdx
	movq	-32(%rbp), %rax
	addq	%rdx, %rax
	movzbl	(%rax), %eax
	cmpb	%al, -20(%rbp)
	jne	.L16
	movl	-4(%rbp), %eax
	jmp	.L17
.L16:
	addl	$1, -4(%rbp)
.L15:
	movl	-4(%rbp), %eax
	movslq	%eax, %rdx
	movq	-32(%rbp), %rax
	addq	%rdx, %rax
	movzbl	(%rax), %eax
	testb	%al, %al
	jne	.L18
	movl	$0, %eax
.L17:
	popq	%rbp
	.cfi_def_cfa 7, 8
	ret
	.cfi_endproc
.LFE8:
	.size	convert_to_b10, .-convert_to_b10
	.globl	ft_atoi_base
	.type	ft_atoi_base, @function
ft_atoi_base:
.LFB9:
	.cfi_startproc
	endbr64
	pushq	%rbp
	.cfi_def_cfa_offset 16
	.cfi_offset 6, -16
	movq	%rsp, %rbp
	.cfi_def_cfa_register 6
	subq	$32, %rsp
	movq	%rdi, -24(%rbp)
	movq	%rsi, -32(%rbp)
	movl	$0, -16(%rbp)
	movl	$1, -12(%rbp)
	movl	$0, -8(%rbp)
	movq	-32(%rbp), %rax
	movq	%rax, %rdi
	call	base_len
	movl	%eax, -4(%rbp)
	movq	-32(%rbp), %rax
	movq	%rax, %rdi
	call	base_checks
	testl	%eax, %eax
	jns	.L22
	movl	$0, %eax
	jmp	.L21
.L24:
	addl	$1, -16(%rbp)
.L22:
	movl	-16(%rbp), %eax
	movslq	%eax, %rdx
	movq	-24(%rbp), %rax
	addq	%rdx, %rax
	movzbl	(%rax), %eax
	testb	%al, %al
	je	.L25
	movl	-16(%rbp), %eax
	movslq	%eax, %rdx
	movq	-24(%rbp), %rax
	addq	%rdx, %rax
	movzbl	(%rax), %eax
	cmpb	$32, %al
	je	.L24
	jmp	.L25
.L28:
	movl	-16(%rbp), %eax
	movslq	%eax, %rdx
	movq	-24(%rbp), %rax
	addq	%rdx, %rax
	movzbl	(%rax), %eax
	cmpb	$45, %al
	jne	.L26
	negl	-12(%rbp)
.L26:
	addl	$1, -16(%rbp)
.L25:
	movl	-16(%rbp), %eax
	movslq	%eax, %rdx
	movq	-24(%rbp), %rax
	addq	%rdx, %rax
	movzbl	(%rax), %eax
	testb	%al, %al
	je	.L29
	movl	-16(%rbp), %eax
	movslq	%eax, %rdx
	movq	-24(%rbp), %rax
	addq	%rdx, %rax
	movzbl	(%rax), %eax
	cmpb	$43, %al
	je	.L28
	movl	-16(%rbp), %eax
	movslq	%eax, %rdx
	movq	-24(%rbp), %rax
	addq	%rdx, %rax
	movzbl	(%rax), %eax
	cmpb	$45, %al
	je	.L28
	jmp	.L29
.L31:
	movl	-8(%rbp), %eax
	imull	-4(%rbp), %eax
	movl	%eax, -8(%rbp)
	movl	-16(%rbp), %eax
	movslq	%eax, %rdx
	movq	-24(%rbp), %rax
	addq	%rdx, %rax
	movzbl	(%rax), %eax
	movsbl	%al, %eax
	movq	-32(%rbp), %rdx
	movq	%rdx, %rsi
	movl	%eax, %edi
	call	convert_to_b10
	addl	%eax, -8(%rbp)
	addl	$1, -16(%rbp)
.L29:
	movl	-16(%rbp), %eax
	movslq	%eax, %rdx
	movq	-24(%rbp), %rax
	addq	%rdx, %rax
	movzbl	(%rax), %eax
	testb	%al, %al
	je	.L30
	movl	-16(%rbp), %eax
	movslq	%eax, %rdx
	movq	-24(%rbp), %rax
	addq	%rdx, %rax
	movzbl	(%rax), %edx
	movq	-32(%rbp), %rax
	movzbl	(%rax), %eax
	cmpb	%al, %dl
	jl	.L30
	movl	-16(%rbp), %eax
	movslq	%eax, %rdx
	movq	-24(%rbp), %rax
	addq	%rdx, %rax
	movzbl	(%rax), %edx
	movl	-4(%rbp), %eax
	cltq
	leaq	-1(%rax), %rcx
	movq	-32(%rbp), %rax
	addq	%rcx, %rax
	movzbl	(%rax), %eax
	cmpb	%al, %dl
	jle	.L31
.L30:
	movl	-8(%rbp), %eax
	imull	-12(%rbp), %eax
.L21:
	leave
	.cfi_def_cfa 7, 8
	ret
	.cfi_endproc
.LFE9:
	.size	ft_atoi_base, .-ft_atoi_base
	.section	.rodata
.LC0:
	.string	"0123456789abcdef"
.LC1:
	.string	"7b"
.LC2:
	.string	"123\342\202\201\342\202\200 from 7b\342\202\201\342\202\206: %d\n"
.LC3:
	.string	"01"
.LC4:
	.string	"0011101"
.LC5:
	.string	"29\342\202\201\342\202\200 from 0011101\342\202\202: %d\n"
.LC6:
	.string	"01234"
.LC7:
	.string	"10321023"
	.align 8
.LC8:
	.string	"88888\342\202\201\342\202\200 from 10321023\342\202\205: %d\n"
.LC9:
	.string	"-7b"
	.align 8
.LC10:
	.string	"-123\342\202\201\342\202\200 from -7b\342\202\201\342\202\206: %d\n"
	.text
	.globl	main
	.type	main, @function
main:
.LFB10:
	.cfi_startproc
	endbr64
	pushq	%rbp
	.cfi_def_cfa_offset 16
	.cfi_offset 6, -16
	movq	%rsp, %rbp
	.cfi_def_cfa_register 6
	leaq	.LC0(%rip), %rax
	movq	%rax, %rsi
	leaq	.LC1(%rip), %rax
	movq	%rax, %rdi
	call	ft_atoi_base
	movl	%eax, %esi
	leaq	.LC2(%rip), %rax
	movq	%rax, %rdi
	movl	$0, %eax
	call	printf@PLT
	leaq	.LC3(%rip), %rax
	movq	%rax, %rsi
	leaq	.LC4(%rip), %rax
	movq	%rax, %rdi
	call	ft_atoi_base
	movl	%eax, %esi
	leaq	.LC5(%rip), %rax
	movq	%rax, %rdi
	movl	$0, %eax
	call	printf@PLT
	leaq	.LC6(%rip), %rax
	movq	%rax, %rsi
	leaq	.LC7(%rip), %rax
	movq	%rax, %rdi
	call	ft_atoi_base
	movl	%eax, %esi
	leaq	.LC8(%rip), %rax
	movq	%rax, %rdi
	movl	$0, %eax
	call	printf@PLT
	leaq	.LC0(%rip), %rax
	movq	%rax, %rsi
	leaq	.LC9(%rip), %rax
	movq	%rax, %rdi
	call	ft_atoi_base
	movl	%eax, %esi
	leaq	.LC10(%rip), %rax
	movq	%rax, %rdi
	movl	$0, %eax
	call	printf@PLT
	movl	$0, %eax
	popq	%rbp
	.cfi_def_cfa 7, 8
	ret
	.cfi_endproc
.LFE10:
	.size	main, .-main
	.ident	"GCC: (Ubuntu 11.4.0-1ubuntu1~22.04) 11.4.0"
	.section	.note.GNU-stack,"",@progbits
	.section	.note.gnu.property,"a"
	.align 8
	.long	1f - 0f
	.long	4f - 1f
	.long	5
0:
	.string	"GNU"
1:
	.align 8
	.long	0xc0000002
	.long	3f - 2f
2:
	.long	0x3
3:
	.align 8
4:
